target datalayout = "e-m:e-p270:32:32-p271:32:32-p272:64:64-i64:64-i128:128-f80:128-n8:16:32:64-S128"
target triple = "x86_64-pc-linux-gnu"

%struct.darktable_t = type { %struct.dt_codepath_t, i32, i32, ptr, ptr, ptr, ptr, ptr, ptr, ptr, ptr, ptr, ptr, ptr, ptr, ptr, ptr, ptr, ptr, ptr, ptr, ptr, ptr, ptr, ptr, ptr, ptr, ptr, ptr, ptr, [64 x %struct.dt_pthread_mutex_t], %struct.dt_pthread_mutex_t, %struct.dt_pthread_mutex_t, %struct.dt_pthread_mutex_t, %struct.dt_pthread_mutex_t, %struct.dt_pthread_mutex_t, ptr, ptr, ptr, ptr, ptr, ptr, ptr, ptr, ptr, ptr, ptr, ptr, ptr, %struct.dt_lua_state_t, ptr, double, ptr, i32, [47 x i32], i32, i32, ptr, ptr, %struct.dt_sys_resources_t, %struct.dt_backthumb_t, %struct.dt_gimp_t }
%struct.dt_codepath_t = type { i8, [3 x i8] }
%struct.dt_pthread_mutex_t = type { %union.pthread_mutex_t }
%union.pthread_mutex_t = type { %struct.__pthread_mutex_s }
%struct.__pthread_mutex_s = type { i32, i32, i32, i32, i32, i16, i16, %struct.__pthread_internal_list }
%struct.__pthread_internal_list = type { ptr, ptr }
%struct.dt_lua_state_t = type { i32 }
%struct.dt_sys_resources_t = type { i64, i64, ptr, ptr, i32 }
%struct.dt_backthumb_t = type { double, double, i32, i32, i32, i32 }
%struct.dt_gimp_t = type { i32, ptr, ptr, i32, i32 }
%struct.dt_selection_t = type { ptr, i32 }

@darktable = external global %struct.darktable_t, align 8
@.str.3 = private unnamed_addr constant [120 x i8] c"generated/home/dtcxzyw/WorkSpace/Projects/compilers/llvm-opt-benchmark/bench/darktable/darktable/src/common/selection.c\00", align 1
@.str.4 = private unnamed_addr constant [54 x i8] c"INSERT OR IGNORE INTO main.selected_images (imgid) %s\00", align 1
@.str.5 = private unnamed_addr constant [38 x i8] c"[sql] %s:%d, function %s(): exec \22%s\22\00", align 1
@stderr = external global ptr, align 8
@.str.7 = private unnamed_addr constant [53 x i8] c"sqlite3 error: %s:%d, function %s(), query \22%s\22: %s\0A\00", align 1
@.str.8 = private unnamed_addr constant [33 x i8] c"DELETE FROM main.selected_images\00", align 1
@__FUNCTION__.dt_selection_select_all = private unnamed_addr constant [24 x i8] c"dt_selection_select_all\00", align 1
@.str.26 = private unnamed_addr constant [40 x i8] c"[signal] raise %s; %s:%d, function %s()\00", align 1
@.str.27 = private unnamed_addr constant [28 x i8] c"DT_SIGNAL_SELECTION_CHANGED\00", align 1
@__FUNCTION__._selection_raise_signal = private unnamed_addr constant [24 x i8] c"_selection_raise_signal\00", align 1

; Function Attrs: nounwind uwtable
define internal void @_selection_raise_signal() #0 {
  call void @dt_act_on_reset_cache(i32 noundef 1)
  call void @dt_act_on_reset_cache(i32 noundef 0)
  br label %1

1:                                                ; preds = %0
  %2 = load i32, ptr getelementptr inbounds nuw (%struct.darktable_t, ptr @darktable, i32 0, i32 53), align 8, !tbaa !55
  %3 = and i32 %2, 1
  %4 = icmp ne i32 %3, 0
  br i1 %4, label %5, label %21

5:                                                ; preds = %1
  %6 = load i32, ptr getelementptr inbounds ([47 x i32], ptr getelementptr inbounds nuw (%struct.darktable_t, ptr @darktable, i32 0, i32 54), i64 0, i64 8), align 4, !tbaa !56
  %7 = icmp ne i32 %6, 0
  br i1 %7, label %8, label %21

8:                                                ; preds = %5
  br label %9

9:                                                ; preds = %8
  %10 = load i32, ptr getelementptr inbounds nuw (%struct.darktable_t, ptr @darktable, i32 0, i32 2), align 8, !tbaa !57
  %11 = and i32 1048576, %10
  %12 = icmp ne i32 %11, 0
  br i1 %12, label %13, label %19

13:                                               ; preds = %9
  %14 = load i32, ptr getelementptr inbounds nuw (%struct.darktable_t, ptr @darktable, i32 0, i32 2), align 8, !tbaa !57
  %15 = xor i32 %14, -1
  %16 = and i32 0, %15
  %17 = icmp ne i32 %16, 0
  br i1 %17, label %19, label %18

18:                                               ; preds = %13
  call void (ptr, ...) @dt_print_ext(ptr noundef @.str.26, ptr noundef @.str.27, ptr noundef @.str.3, i32 noundef 48, ptr noundef @__FUNCTION__._selection_raise_signal)
  br label %19

19:                                               ; preds = %18, %13, %9
  br label %20

20:                                               ; preds = %19
  br label %21

21:                                               ; preds = %20, %5, %1
  %22 = load ptr, ptr getelementptr inbounds nuw (%struct.darktable_t, ptr @darktable, i32 0, i32 13), align 8, !tbaa !58
  call void (ptr, i32, ...) @dt_control_signal_raise(ptr noundef %22, i32 noundef 8)
  br label %23

23:                                               ; preds = %21
  ret void
}

; Function Attrs: nounwind uwtable
define void @dt_selection_select_all(ptr noundef %0) #0 {
  %2 = alloca ptr, align 8
  %3 = alloca ptr, align 8
  %4 = alloca i32, align 4
  %5 = alloca i32, align 4
  store ptr %0, ptr %2, align 8, !tbaa !6
  %6 = load ptr, ptr %2, align 8, !tbaa !6
  %7 = getelementptr inbounds nuw %struct.dt_selection_t, ptr %6, i32 0, i32 0
  %8 = load ptr, ptr %7, align 8, !tbaa !11
  %9 = icmp ne ptr %8, null
  br i1 %9, label %11, label %10

10:                                               ; preds = %1
  br label %80

11:                                               ; preds = %1
  call void @llvm.lifetime.start.p0(i64 8, ptr %3) #5
  %12 = load ptr, ptr %2, align 8, !tbaa !6
  %13 = getelementptr inbounds nuw %struct.dt_selection_t, ptr %12, i32 0, i32 0
  %14 = load ptr, ptr %13, align 8, !tbaa !11
  %15 = call ptr @dt_collection_get_query_no_group(ptr noundef %14)
  %16 = call noalias ptr (ptr, ...) @g_strdup_printf(ptr noundef @.str.4, ptr noundef %15)
  store ptr %16, ptr %3, align 8, !tbaa !60
  br label %17

17:                                               ; preds = %11
  br label %18

18:                                               ; preds = %17
  %19 = load i32, ptr getelementptr inbounds nuw (%struct.darktable_t, ptr @darktable, i32 0, i32 2), align 8, !tbaa !57
  %20 = and i32 256, %19
  %21 = icmp ne i32 %20, 0
  br i1 %21, label %22, label %28

22:                                               ; preds = %18
  %23 = load i32, ptr getelementptr inbounds nuw (%struct.darktable_t, ptr @darktable, i32 0, i32 2), align 8, !tbaa !57
  %24 = xor i32 %23, -1
  %25 = and i32 0, %24
  %26 = icmp ne i32 %25, 0
  br i1 %26, label %28, label %27

27:                                               ; preds = %22
  call void (ptr, ...) @dt_print_ext(ptr noundef @.str.5, ptr noundef @.str.3, i32 noundef 301, ptr noundef @__FUNCTION__.dt_selection_select_all, ptr noundef @.str.8)
  br label %28

28:                                               ; preds = %27, %22, %18
  br label %29

29:                                               ; preds = %28
  br label %30

30:                                               ; preds = %29
  call void @llvm.lifetime.start.p0(i64 4, ptr %4) #5
  %31 = load ptr, ptr getelementptr inbounds nuw (%struct.darktable_t, ptr @darktable, i32 0, i32 18), align 8, !tbaa !61
  %32 = call ptr @dt_database_get(ptr noundef %31)
  %33 = call i32 @sqlite3_exec(ptr noundef %32, ptr noundef @.str.8, ptr noundef null, ptr noundef null, ptr noundef null)
  store i32 %33, ptr %4, align 4, !tbaa !56
  %34 = load i32, ptr %4, align 4, !tbaa !56
  %35 = icmp ne i32 %34, 0
  br i1 %35, label %36, label %42

36:                                               ; preds = %30
  %37 = load ptr, ptr @stderr, align 8, !tbaa !62
  %38 = load ptr, ptr getelementptr inbounds nuw (%struct.darktable_t, ptr @darktable, i32 0, i32 18), align 8, !tbaa !61
  %39 = call ptr @dt_database_get(ptr noundef %38)
  %40 = call ptr @sqlite3_errmsg(ptr noundef %39)
  %41 = call i32 (ptr, ptr, ...) @fprintf(ptr noundef %37, ptr noundef @.str.7, ptr noundef @.str.3, i32 noundef 301, ptr noundef @__FUNCTION__.dt_selection_select_all, ptr noundef @.str.8, ptr noundef %40) #5
  br label %42

42:                                               ; preds = %36, %30
  call void @llvm.lifetime.end.p0(i64 4, ptr %4) #5
  br label %43

43:                                               ; preds = %42
  br label %44

44:                                               ; preds = %43
  br label %45

45:                                               ; preds = %44
  br label %46

46:                                               ; preds = %45
  %47 = load i32, ptr getelementptr inbounds nuw (%struct.darktable_t, ptr @darktable, i32 0, i32 2), align 8, !tbaa !57
  %48 = and i32 256, %47
  %49 = icmp ne i32 %48, 0
  br i1 %49, label %50, label %57

50:                                               ; preds = %46
  %51 = load i32, ptr getelementptr inbounds nuw (%struct.darktable_t, ptr @darktable, i32 0, i32 2), align 8, !tbaa !57
  %52 = xor i32 %51, -1
  %53 = and i32 0, %52
  %54 = icmp ne i32 %53, 0
  br i1 %54, label %57, label %55

55:                                               ; preds = %50
  %56 = load ptr, ptr %3, align 8, !tbaa !60
  call void (ptr, ...) @dt_print_ext(ptr noundef @.str.5, ptr noundef @.str.3, i32 noundef 302, ptr noundef @__FUNCTION__.dt_selection_select_all, ptr noundef %56)
  br label %57

57:                                               ; preds = %55, %50, %46
  br label %58

58:                                               ; preds = %57
  br label %59

59:                                               ; preds = %58
  call void @llvm.lifetime.start.p0(i64 4, ptr %5) #5
  %60 = load ptr, ptr getelementptr inbounds nuw (%struct.darktable_t, ptr @darktable, i32 0, i32 18), align 8, !tbaa !61
  %61 = call ptr @dt_database_get(ptr noundef %60)
  %62 = load ptr, ptr %3, align 8, !tbaa !60
  %63 = call i32 @sqlite3_exec(ptr noundef %61, ptr noundef %62, ptr noundef null, ptr noundef null, ptr noundef null)
  store i32 %63, ptr %5, align 4, !tbaa !56
  %64 = load i32, ptr %5, align 4, !tbaa !56
  %65 = icmp ne i32 %64, 0
  br i1 %65, label %66, label %73

66:                                               ; preds = %59
  %67 = load ptr, ptr @stderr, align 8, !tbaa !62
  %68 = load ptr, ptr %3, align 8, !tbaa !60
  %69 = load ptr, ptr getelementptr inbounds nuw (%struct.darktable_t, ptr @darktable, i32 0, i32 18), align 8, !tbaa !61
  %70 = call ptr @dt_database_get(ptr noundef %69)
  %71 = call ptr @sqlite3_errmsg(ptr noundef %70)
  %72 = call i32 (ptr, ptr, ...) @fprintf(ptr noundef %67, ptr noundef @.str.7, ptr noundef @.str.3, i32 noundef 302, ptr noundef @__FUNCTION__.dt_selection_select_all, ptr noundef %68, ptr noundef %71) #5
  br label %73

73:                                               ; preds = %66, %59
  call void @llvm.lifetime.end.p0(i64 4, ptr %5) #5
  br label %74

74:                                               ; preds = %73
  br label %75

75:                                               ; preds = %74
  %76 = load ptr, ptr %2, align 8, !tbaa !6
  %77 = getelementptr inbounds nuw %struct.dt_selection_t, ptr %76, i32 0, i32 1
  store i32 0, ptr %77, align 8, !tbaa !15
  %78 = load ptr, ptr %3, align 8, !tbaa !60
  call void @g_free(ptr noundef %78)
  call void @_selection_raise_signal()
  %79 = load ptr, ptr getelementptr inbounds nuw (%struct.darktable_t, ptr @darktable, i32 0, i32 21), align 8, !tbaa !16
  call void @dt_collection_hint_message(ptr noundef %79)
  call void @llvm.lifetime.end.p0(i64 8, ptr %3) #5
  br label %80

80:                                               ; preds = %75, %10
  ret void
}