; Function Attrs: nounwind uwtable
define void @dt_selection_select_all(ptr noundef captures(none) %0) local_unnamed_addr #1 {
  %2 = load ptr, ptr %0, align 8, !tbaa !6
  %.not = icmp eq ptr %2, null
  br i1 %.not, label %46, label %3

3:                                                ; preds = %1
  %4 = tail call ptr @dt_collection_get_query_no_group(ptr noundef nonnull %2) #8
  %5 = tail call noalias ptr (ptr, ...) @g_strdup_printf(ptr noundef nonnull @.str.4, ptr noundef %4) #8
  %6 = load i32, ptr getelementptr inbounds nuw (i8, ptr @darktable, i64 8), align 8, !tbaa !54
  %7 = and i32 %6, 256
  %.not8 = icmp eq i32 %7, 0
  br i1 %.not8, label %9, label %8

8:                                                ; preds = %3
  tail call void (ptr, ...) @dt_print_ext(ptr noundef nonnull @.str.5, ptr noundef nonnull @.str.3, i32 noundef 301, ptr noundef nonnull @__FUNCTION__.dt_selection_select_all, ptr noundef nonnull @.str.8) #8
  br label %9

9:                                                ; preds = %8, %3
  %10 = load ptr, ptr getelementptr inbounds nuw (i8, ptr @darktable, i64 136), align 8, !tbaa !56
  %11 = tail call ptr @dt_database_get(ptr noundef %10) #8
  %12 = tail call i32 @sqlite3_exec(ptr noundef %11, ptr noundef nonnull @.str.8, ptr noundef null, ptr noundef null, ptr noundef null) #8
  %.not9 = icmp eq i32 %12, 0
  br i1 %.not9, label %19, label %13

13:                                               ; preds = %9
  %14 = load ptr, ptr @stderr, align 8, !tbaa !57
  %15 = load ptr, ptr getelementptr inbounds nuw (i8, ptr @darktable, i64 136), align 8, !tbaa !56
  %16 = tail call ptr @dt_database_get(ptr noundef %15) #8
  %17 = tail call ptr @sqlite3_errmsg(ptr noundef %16) #8
  %18 = tail call i32 (ptr, ptr, ...) @fprintf(ptr noundef %14, ptr noundef nonnull @.str.7, ptr noundef nonnull @.str.3, i32 noundef 301, ptr noundef nonnull @__FUNCTION__.dt_selection_select_all, ptr noundef nonnull @.str.8, ptr noundef %17) #9
  br label %19

19:                                               ; preds = %13, %9
  %20 = load i32, ptr getelementptr inbounds nuw (i8, ptr @darktable, i64 8), align 8, !tbaa !54
  %21 = and i32 %20, 256
  %.not10 = icmp eq i32 %21, 0
  br i1 %.not10, label %23, label %22

22:                                               ; preds = %19
  tail call void (ptr, ...) @dt_print_ext(ptr noundef nonnull @.str.5, ptr noundef nonnull @.str.3, i32 noundef 302, ptr noundef nonnull @__FUNCTION__.dt_selection_select_all, ptr noundef %5) #8
  br label %23

23:                                               ; preds = %22, %19
  %24 = load ptr, ptr getelementptr inbounds nuw (i8, ptr @darktable, i64 136), align 8, !tbaa !56
  %25 = tail call ptr @dt_database_get(ptr noundef %24) #8
  %26 = tail call i32 @sqlite3_exec(ptr noundef %25, ptr noundef %5, ptr noundef null, ptr noundef null, ptr noundef null) #8
  %.not11 = icmp eq i32 %26, 0
  br i1 %.not11, label %33, label %27

27:                                               ; preds = %23
  %28 = load ptr, ptr @stderr, align 8, !tbaa !57
  %29 = load ptr, ptr getelementptr inbounds nuw (i8, ptr @darktable, i64 136), align 8, !tbaa !56
  %30 = tail call ptr @dt_database_get(ptr noundef %29) #8
  %31 = tail call ptr @sqlite3_errmsg(ptr noundef %30) #8
  %32 = tail call i32 (ptr, ptr, ...) @fprintf(ptr noundef %28, ptr noundef nonnull @.str.7, ptr noundef nonnull @.str.3, i32 noundef 302, ptr noundef nonnull @__FUNCTION__.dt_selection_select_all, ptr noundef %5, ptr noundef %31) #9
  br label %33

33:                                               ; preds = %27, %23
  %34 = getelementptr inbounds nuw i8, ptr %0, i64 8
  store i32 0, ptr %34, align 8, !tbaa !50
  tail call void @g_free(ptr noundef %5) #8
  tail call void @dt_act_on_reset_cache(i32 noundef 1) #8
  tail call void @dt_act_on_reset_cache(i32 noundef 0) #8
  %35 = load i32, ptr getelementptr inbounds nuw (i8, ptr @darktable, i64 3128), align 8, !tbaa !53
  %36 = and i32 %35, 1
  %37 = icmp ne i32 %36, 0
  %38 = load i32, ptr getelementptr inbounds nuw (i8, ptr @darktable, i64 3164), align 4
  %39 = icmp ne i32 %38, 0
  %or.cond.i = select i1 %37, i1 %39, i1 false
  br i1 %or.cond.i, label %40, label %_selection_raise_signal.exit

40:                                               ; preds = %33
  %41 = load i32, ptr getelementptr inbounds nuw (i8, ptr @darktable, i64 8), align 8, !tbaa !54
  %42 = and i32 %41, 1048576
  %.not.i = icmp eq i32 %42, 0
  br i1 %.not.i, label %_selection_raise_signal.exit, label %43

43:                                               ; preds = %40
  tail call void (ptr, ...) @dt_print_ext(ptr noundef nonnull @.str.26, ptr noundef nonnull @.str.27, ptr noundef nonnull @.str.3, i32 noundef 48, ptr noundef nonnull @__FUNCTION__._selection_raise_signal) #8
  br label %_selection_raise_signal.exit

_selection_raise_signal.exit:                     ; preds = %33, %40, %43
  %44 = load ptr, ptr getelementptr inbounds nuw (i8, ptr @darktable, i64 96), align 8, !tbaa !55
  tail call void (ptr, i32, ...) @dt_control_signal_raise(ptr noundef %44, i32 noundef 8) #8
  %45 = load ptr, ptr getelementptr inbounds nuw (i8, ptr @darktable, i64 160), align 8, !tbaa !13
  tail call void @dt_collection_hint_message(ptr noundef %45) #8
  br label %46

46:                                               ; preds = %1, %_selection_raise_signal.exit
  ret void
}